target datalayout = "e-m:e-p270:32:32-p271:32:32-p272:64:64-i64:64-i128:128-f80:128-n8:16:32:64-S128"
target triple = "x86_64-pc-linux-gnu"

%struct.tool_ssls_ctx = type { ptr, ptr, i32 }

@.str.11 = private unnamed_addr constant [127 x i8] c"# Your SSL session cache. https://curl.se/docs/ssl-sessions.html\0A# This file was generated by libcurl! Edit at your own risk.\0A\00", align 1
@.str.12 = private unnamed_addr constant [47 x i8] c"Warning: error saving SSL session for '%s': %d\00", align 1

; Function Attrs: nounwind uwtable
define internal i32 @tool_ssls_exp(ptr noundef %0, ptr noundef %1, ptr noundef %2, ptr noundef %3, i64 noundef %4, ptr noundef %5, i64 noundef %6, i64 noundef %7, i32 noundef %8, ptr noundef %9, i64 noundef %10) #0 {
  %12 = alloca ptr, align 8
  %13 = alloca ptr, align 8
  %14 = alloca ptr, align 8
  %15 = alloca ptr, align 8
  %16 = alloca i64, align 8
  %17 = alloca ptr, align 8
  %18 = alloca i64, align 8
  %19 = alloca i64, align 8
  %20 = alloca i32, align 4
  %21 = alloca ptr, align 8
  %22 = alloca i64, align 8
  %23 = alloca ptr, align 8
  %24 = alloca ptr, align 8
  %25 = alloca i64, align 8
  %26 = alloca i32, align 4
  store ptr %0, ptr %12, align 8, !tbaa !11
  store ptr %1, ptr %13, align 8, !tbaa !11
  store ptr %2, ptr %14, align 8, !tbaa !12
  store ptr %3, ptr %15, align 8, !tbaa !12
  store i64 %4, ptr %16, align 8, !tbaa !23
  store ptr %5, ptr %17, align 8, !tbaa !12
  store i64 %6, ptr %18, align 8, !tbaa !23
  store i64 %7, ptr %19, align 8, !tbaa !23
  store i32 %8, ptr %20, align 4, !tbaa !14
  store ptr %9, ptr %21, align 8, !tbaa !12
  store i64 %10, ptr %22, align 8, !tbaa !23
  call void @llvm.lifetime.start.p0(i64 8, ptr %23) #4
  %27 = load ptr, ptr %13, align 8, !tbaa !11
  store ptr %27, ptr %23, align 8, !tbaa !34
  call void @llvm.lifetime.start.p0(i64 8, ptr %24) #4
  store ptr null, ptr %24, align 8, !tbaa !12
  call void @llvm.lifetime.start.p0(i64 8, ptr %25) #4
  call void @llvm.lifetime.start.p0(i64 4, ptr %26) #4
  %28 = load ptr, ptr %23, align 8, !tbaa !34
  %29 = getelementptr inbounds nuw %struct.tool_ssls_ctx, ptr %28, i32 0, i32 2
  %30 = load i32, ptr %29, align 8, !tbaa !32
  %31 = icmp ne i32 %30, 0
  br i1 %31, label %37, label %32

32:                                               ; preds = %11
  %33 = load ptr, ptr %23, align 8, !tbaa !34
  %34 = getelementptr inbounds nuw %struct.tool_ssls_ctx, ptr %33, i32 0, i32 1
  %35 = load ptr, ptr %34, align 8, !tbaa !33
  %36 = call i32 @fputs(ptr noundef @.str.11, ptr noundef %35)
  br label %37

37:                                               ; preds = %32, %11
  %38 = load ptr, ptr %15, align 8, !tbaa !12
  %39 = load i64, ptr %16, align 8, !tbaa !23
  %40 = call i32 @curlx_base64_encode(ptr noundef %38, i64 noundef %39, ptr noundef %24, ptr noundef %25)
  store i32 %40, ptr %26, align 4, !tbaa !14
  %41 = load i32, ptr %26, align 4, !tbaa !14
  %42 = icmp ne i32 %41, 0
  br i1 %42, label %43, label %44

43:                                               ; preds = %37
  br label %91

44:                                               ; preds = %37
  store i32 23, ptr %26, align 4, !tbaa !14
  %45 = load i64, ptr %25, align 8, !tbaa !23
  %46 = load ptr, ptr %24, align 8, !tbaa !12
  %47 = load i64, ptr %25, align 8, !tbaa !23
  %48 = load ptr, ptr %23, align 8, !tbaa !34
  %49 = getelementptr inbounds nuw %struct.tool_ssls_ctx, ptr %48, i32 0, i32 1
  %50 = load ptr, ptr %49, align 8, !tbaa !33
  %51 = call i64 @fwrite(ptr noundef %46, i64 noundef 1, i64 noundef %47, ptr noundef %50)
  %52 = icmp ne i64 %45, %51
  br i1 %52, label %53, label %54

53:                                               ; preds = %44
  br label %91

54:                                               ; preds = %44
  %55 = load ptr, ptr %23, align 8, !tbaa !34
  %56 = getelementptr inbounds nuw %struct.tool_ssls_ctx, ptr %55, i32 0, i32 1
  %57 = load ptr, ptr %56, align 8, !tbaa !33
  %58 = call i32 @fputc(i32 noundef 58, ptr noundef %57)
  %59 = icmp eq i32 -1, %58
  br i1 %59, label %60, label %61

60:                                               ; preds = %54
  br label %91

61:                                               ; preds = %54
  %62 = load ptr, ptr %24, align 8, !tbaa !12
  call void @curl_free(ptr noundef %62)
  %63 = load ptr, ptr %17, align 8, !tbaa !12
  %64 = load i64, ptr %18, align 8, !tbaa !23
  %65 = call i32 @curlx_base64_encode(ptr noundef %63, i64 noundef %64, ptr noundef %24, ptr noundef %25)
  store i32 %65, ptr %26, align 4, !tbaa !14
  %66 = load i32, ptr %26, align 4, !tbaa !14
  %67 = icmp ne i32 %66, 0
  br i1 %67, label %68, label %69

68:                                               ; preds = %61
  br label %91

69:                                               ; preds = %61
  store i32 23, ptr %26, align 4, !tbaa !14
  %70 = load i64, ptr %25, align 8, !tbaa !23
  %71 = load ptr, ptr %24, align 8, !tbaa !12
  %72 = load i64, ptr %25, align 8, !tbaa !23
  %73 = load ptr, ptr %23, align 8, !tbaa !34
  %74 = getelementptr inbounds nuw %struct.tool_ssls_ctx, ptr %73, i32 0, i32 1
  %75 = load ptr, ptr %74, align 8, !tbaa !33
  %76 = call i64 @fwrite(ptr noundef %71, i64 noundef 1, i64 noundef %72, ptr noundef %75)
  %77 = icmp ne i64 %70, %76
  br i1 %77, label %78, label %79

78:                                               ; preds = %69
  br label %91

79:                                               ; preds = %69
  %80 = load ptr, ptr %23, align 8, !tbaa !34
  %81 = getelementptr inbounds nuw %struct.tool_ssls_ctx, ptr %80, i32 0, i32 1
  %82 = load ptr, ptr %81, align 8, !tbaa !33
  %83 = call i32 @fputc(i32 noundef 10, ptr noundef %82)
  %84 = icmp eq i32 -1, %83
  br i1 %84, label %85, label %86

85:                                               ; preds = %79
  br label %91

86:                                               ; preds = %79
  store i32 0, ptr %26, align 4, !tbaa !14
  %87 = load ptr, ptr %23, align 8, !tbaa !34
  %88 = getelementptr inbounds nuw %struct.tool_ssls_ctx, ptr %87, i32 0, i32 2
  %89 = load i32, ptr %88, align 8, !tbaa !32
  %90 = add nsw i32 %89, 1
  store i32 %90, ptr %88, align 8, !tbaa !32
  br label %91

91:                                               ; preds = %86, %85, %78, %68, %60, %53, %43
  %92 = load i32, ptr %26, align 4, !tbaa !14
  %93 = icmp ne i32 %92, 0
  br i1 %93, label %94, label %100

94:                                               ; preds = %91
  %95 = load ptr, ptr %23, align 8, !tbaa !34
  %96 = getelementptr inbounds nuw %struct.tool_ssls_ctx, ptr %95, i32 0, i32 0
  %97 = load ptr, ptr %96, align 8, !tbaa !30
  %98 = load ptr, ptr %14, align 8, !tbaa !12
  %99 = load i32, ptr %26, align 4, !tbaa !14
  call void (ptr, ptr, ...) @warnf(ptr noundef %97, ptr noundef @.str.12, ptr noundef %98, i32 noundef %99)
  br label %100

100:                                              ; preds = %94, %91
  %101 = load ptr, ptr %24, align 8, !tbaa !12
  call void @curl_free(ptr noundef %101)
  %102 = load i32, ptr %26, align 4, !tbaa !14
  call void @llvm.lifetime.end.p0(i64 4, ptr %26) #4
  call void @llvm.lifetime.end.p0(i64 8, ptr %25) #4
  call void @llvm.lifetime.end.p0(i64 8, ptr %24) #4
  call void @llvm.lifetime.end.p0(i64 8, ptr %23) #4
  ret i32 %102
}