; Function Attrs: nounwind uwtable
define internal noundef i32 @tool_ssls_exp(ptr readnone captures(none) %0, ptr noundef captures(none) %1, ptr noundef %2, ptr noundef %3, i64 noundef %4, ptr noundef %5, i64 noundef %6, i64 %7, i32 %8, ptr readnone captures(none) %9, i64 %10) #0 {
  %12 = alloca ptr, align 8
  %13 = alloca i64, align 8
  call void @llvm.lifetime.start.p0(i64 8, ptr nonnull %12) #5
  store ptr null, ptr %12, align 8, !tbaa !4
  call void @llvm.lifetime.start.p0(i64 8, ptr nonnull %13) #5
  %14 = getelementptr inbounds nuw i8, ptr %1, i64 16
  %15 = load i32, ptr %14, align 8, !tbaa !28
  %.not = icmp eq i32 %15, 0
  br i1 %.not, label %16, label %20

16:                                               ; preds = %11
  %17 = getelementptr inbounds nuw i8, ptr %1, i64 8
  %18 = load ptr, ptr %17, align 8, !tbaa !29
  %19 = tail call i64 @fwrite(ptr nonnull @.str.11, i64 126, i64 1, ptr %18)
  br label %20

20:                                               ; preds = %16, %11
  %21 = call i32 @curlx_base64_encode(ptr noundef %3, i64 noundef %4, ptr noundef nonnull %12, ptr noundef nonnull %13) #5
  %.not20 = icmp eq i32 %21, 0
  br i1 %.not20, label %22, label %47

22:                                               ; preds = %20
  %23 = load i64, ptr %13, align 8, !tbaa !15
  %24 = load ptr, ptr %12, align 8, !tbaa !4
  %25 = getelementptr inbounds nuw i8, ptr %1, i64 8
  %26 = load ptr, ptr %25, align 8, !tbaa !29
  %27 = call i64 @fwrite(ptr noundef %24, i64 noundef 1, i64 noundef %23, ptr noundef %26)
  %.not21 = icmp eq i64 %23, %27
  br i1 %.not21, label %28, label %47

28:                                               ; preds = %22
  %29 = load ptr, ptr %25, align 8, !tbaa !29
  %30 = call i32 @fputc(i32 noundef 58, ptr noundef %29)
  %31 = icmp eq i32 %30, -1
  br i1 %31, label %47, label %32

32:                                               ; preds = %28
  %33 = load ptr, ptr %12, align 8, !tbaa !4
  call void @curl_free(ptr noundef %33) #5
  %34 = call i32 @curlx_base64_encode(ptr noundef %5, i64 noundef %6, ptr noundef nonnull %12, ptr noundef nonnull %13) #5
  %.not22 = icmp eq i32 %34, 0
  br i1 %.not22, label %35, label %47

35:                                               ; preds = %32
  %36 = load i64, ptr %13, align 8, !tbaa !15
  %37 = load ptr, ptr %12, align 8, !tbaa !4
  %38 = load ptr, ptr %25, align 8, !tbaa !29
  %39 = call i64 @fwrite(ptr noundef %37, i64 noundef 1, i64 noundef %36, ptr noundef %38)
  %.not23 = icmp eq i64 %36, %39
  br i1 %.not23, label %40, label %47

40:                                               ; preds = %35
  %41 = load ptr, ptr %25, align 8, !tbaa !29
  %42 = call i32 @fputc(i32 noundef 10, ptr noundef %41)
  %43 = icmp eq i32 %42, -1
  br i1 %43, label %47, label %44

44:                                               ; preds = %40
  %45 = load i32, ptr %14, align 8, !tbaa !28
  %46 = add nsw i32 %45, 1
  store i32 %46, ptr %14, align 8, !tbaa !28
  br label %49

47:                                               ; preds = %20, %22, %28, %32, %35, %40
  %.0.ph = phi i32 [ 23, %40 ], [ 23, %35 ], [ %34, %32 ], [ 23, %28 ], [ 23, %22 ], [ %21, %20 ]
  %48 = load ptr, ptr %1, align 8, !tbaa !25
  call void (ptr, ptr, ...) @warnf(ptr noundef %48, ptr noundef nonnull @.str.12, ptr noundef %2, i32 noundef %.0.ph) #5
  br label %49

49:                                               ; preds = %44, %47
  %.028 = phi i32 [ %.0.ph, %47 ], [ 0, %44 ]
  %50 = load ptr, ptr %12, align 8, !tbaa !4
  call void @curl_free(ptr noundef %50) #5
  call void @llvm.lifetime.end.p0(i64 8, ptr nonnull %13) #5
  call void @llvm.lifetime.end.p0(i64 8, ptr nonnull %12) #5
  ret i32 %.028
}